; Function Attrs: null_pointer_is_valid sspstrong uwtable
define hidden i32 @samr_dissect_struct_ValidatePasswordRepCtr(ptr noundef %0, i32 noundef %1, ptr noundef %2, ptr noundef %3, ptr noundef %4, ptr noundef %5, i32 noundef %6, i32 %7) local_unnamed_addr #0 {
  %9 = alloca i32, align 4
  %10 = getelementptr inbounds nuw i8, ptr %4, i64 25
  %11 = load i8, ptr %10, align 1, !range !6, !noundef !7
  %12 = trunc nuw i8 %11 to i1
  %13 = and i32 %1, 7
  %.not = icmp eq i32 %13, 0
  %or.cond = or i1 %.not, %12
  %14 = and i32 %1, -8
  %15 = add i32 %14, 8
  %.0 = select i1 %or.cond, i32 %1, i32 %15
  %.not32 = icmp eq ptr %3, null
  br i1 %.not32, label %20, label %16

16:                                               ; preds = %8
  %17 = tail call ptr @proto_tree_add_item(ptr noundef nonnull %3, i32 noundef %6, ptr noundef %0, i32 noundef %.0, i32 noundef -1, i32 noundef 0)
  %18 = load i32, ptr @ett_samr_samr_ValidatePasswordRepCtr, align 4
  %19 = tail call ptr @proto_item_add_subtree(ptr noundef %17, i32 noundef %18)
  br label %20

20:                                               ; preds = %16, %8
  %.030 = phi ptr [ %17, %16 ], [ null, %8 ]
  %.029 = phi ptr [ %19, %16 ], [ null, %8 ]
  %21 = load i32, ptr @hf_samr_samr_ValidatePasswordRepCtr_info, align 4
  %22 = tail call i32 @samr_dissect_struct_ValidatePasswordInfo(ptr noundef %0, i32 noundef %.0, ptr noundef %2, ptr noundef %.029, ptr noundef %4, ptr noundef %5, i32 noundef %21, i32 poison)
  %23 = load i32, ptr @hf_samr_samr_ValidatePasswordRepCtr_status, align 4
  call void @llvm.lifetime.start.p0(i64 4, ptr nonnull %9) #5
  store i32 0, ptr %9, align 4
  %24 = call i32 @dissect_ndr_uint1632(ptr noundef %0, i32 noundef %22, ptr noundef %2, ptr noundef %.029, ptr noundef %4, ptr noundef %5, i32 noundef %23, ptr noundef nonnull %9)
  call void @llvm.lifetime.end.p0(i64 4, ptr nonnull %9) #5
  %25 = sub i32 %24, %.0
  call void @proto_item_set_len(ptr noundef %.030, i32 noundef %25)
  %26 = getelementptr inbounds nuw i8, ptr %4, i64 64
  %27 = load ptr, ptr %26, align 8
  %28 = getelementptr inbounds nuw i8, ptr %27, i64 96
  %29 = load i32, ptr %28, align 8
  %30 = and i32 %29, 1
  %.not33 = icmp eq i32 %30, 0
  br i1 %.not33, label %38, label %31

31:                                               ; preds = %20
  %32 = load i8, ptr %10, align 1, !range !6, !noundef !7
  %33 = trunc nuw i8 %32 to i1
  %34 = and i32 %24, 7
  %.not34 = icmp eq i32 %34, 0
  %or.cond35 = or i1 %.not34, %33
  br i1 %or.cond35, label %38, label %35

35:                                               ; preds = %31
  %36 = and i32 %24, -8
  %37 = add i32 %36, 8
  br label %38

38:                                               ; preds = %31, %35, %20
  %.1 = phi i32 [ %24, %31 ], [ %37, %35 ], [ %24, %20 ]
  ret i32 %.1
}